target datalayout = "e-m:e-p270:32:32-p271:32:32-p272:64:64-i64:64-i128:128-f80:128-n8:16:32:64-S128"
target triple = "x86_64-pc-linux-gnu"

%struct._GLFWlibrary = type { i32, %struct.GLFWallocator, %struct._GLFWplatform, %struct.anon, ptr, ptr, ptr, ptr, i32, i32, [16 x %struct._GLFWjoystick], ptr, i32, %struct._GLFWtls, %struct._GLFWtls, %struct._GLFWmutex, %struct.anon.8, %struct.anon.9, %struct.anon.10, %struct.anon.11, %struct.anon.12, %struct._GLFWlibraryWayland, %struct._GLFWlibraryX11, %struct._GLFWlibraryNull, %struct._GLFWlibraryGLX, %struct._GLFWlibraryLinux }
%struct.GLFWallocator = type { ptr, ptr, ptr, ptr }
%struct._GLFWplatform = type { i32, ptr, ptr, ptr, ptr, ptr, ptr, ptr, ptr, ptr, ptr, ptr, ptr, ptr, ptr, ptr, ptr, ptr, ptr, ptr, ptr, ptr, ptr, ptr, ptr, ptr, ptr, ptr, ptr, ptr, ptr, ptr, ptr, ptr, ptr, ptr, ptr, ptr, ptr, ptr, ptr, ptr, ptr, ptr, ptr, ptr, ptr, ptr, ptr, ptr, ptr, ptr, ptr, ptr, ptr, ptr, ptr, ptr, ptr, ptr, ptr, ptr, ptr, ptr, ptr, ptr, ptr, ptr, ptr, ptr, ptr, ptr }
%struct.anon = type { %struct._GLFWinitconfig, %struct._GLFWfbconfig, %struct._GLFWwndconfig, %struct._GLFWctxconfig, i32 }
%struct._GLFWinitconfig = type { i32, i32, i32, ptr, %struct.anon.0, %struct.anon.1, %struct.anon.2 }
%struct.anon.0 = type { i32, i32 }
%struct.anon.1 = type { i32 }
%struct.anon.2 = type { i32 }
%struct._GLFWfbconfig = type { i32, i32, i32, i32, i32, i32, i32, i32, i32, i32, i32, i32, i32, i32, i32, i32, i64 }
%struct._GLFWwndconfig = type { i32, i32, i32, i32, ptr, i32, i32, i32, i32, i32, i32, i32, i32, i32, i32, i32, i32, %struct.anon.3, %struct.anon.4, %struct.anon.5, %struct.anon.6 }
%struct.anon.3 = type { [256 x i8] }
%struct.anon.4 = type { [256 x i8], [256 x i8] }
%struct.anon.5 = type { i32, i32 }
%struct.anon.6 = type { [256 x i8] }
%struct._GLFWctxconfig = type { i32, i32, i32, i32, i32, i32, i32, i32, i32, i32, ptr, %struct.anon.7 }
%struct.anon.7 = type { i32 }
%struct._GLFWjoystick = type { i32, i32, ptr, i32, ptr, i32, ptr, i32, [128 x i8], ptr, [33 x i8], ptr, %struct._GLFWjoystickLinux }
%struct._GLFWjoystickLinux = type { i32, [4096 x i8], [512 x i32], [64 x i32], [64 x %struct.input_absinfo], [4 x [2 x i32]] }
%struct.input_absinfo = type { i32, i32, i32, i32, i32, i32 }
%struct._GLFWtls = type { %struct._GLFWtlsPOSIX }
%struct._GLFWtlsPOSIX = type { i32, i32 }
%struct._GLFWmutex = type { %struct._GLFWmutexPOSIX }
%struct._GLFWmutexPOSIX = type { i32, %union.pthread_mutex_t }
%union.pthread_mutex_t = type { %struct.__pthread_mutex_s }
%struct.__pthread_mutex_s = type { i32, i32, i32, i32, i32, i16, i16, %struct.__pthread_internal_list }
%struct.__pthread_internal_list = type { ptr, ptr }
%struct.anon.8 = type { i64, %struct._GLFWtimerPOSIX }
%struct._GLFWtimerPOSIX = type { i32, i64 }
%struct.anon.9 = type { i32, ptr, i32, i32, i32, i32, i32, i32, i32, i32, i32, i32, i32, i32, i32, i32, i32, i32, i32, i32, ptr, ptr, ptr, ptr, ptr, ptr, ptr, ptr, ptr, ptr, ptr, ptr, ptr, ptr, ptr, ptr, ptr, ptr, ptr }
%struct.anon.10 = type { ptr, ptr, ptr, ptr, ptr, ptr, ptr, ptr }
%struct.anon.11 = type { i32, ptr, [2 x ptr], ptr, i32, i32, i32, i32, i32, i32, i32 }
%struct.anon.12 = type { ptr, ptr }
%struct._GLFWlibraryWayland = type { ptr, ptr, ptr, ptr, ptr, ptr, ptr, ptr, ptr, ptr, ptr, ptr, ptr, ptr, ptr, ptr, ptr, ptr, ptr, i32, ptr, ptr, ptr, ptr, i32, ptr, ptr, ptr, ptr, ptr, i32, i32, i32, i32, i32, i32, i32, ptr, [256 x i16], [349 x i16], [349 x [5 x i8]], %struct.anon.13, ptr, ptr, %struct.anon.14, %struct.anon.15, %struct.anon.16, %struct.anon.17 }
%struct.anon.13 = type { ptr, ptr, ptr, ptr, ptr, i32, i32, i32, i32, i32, i32, i32, ptr, ptr, ptr, ptr, ptr, ptr, ptr, ptr, ptr, ptr, ptr, ptr, ptr, ptr, ptr, ptr, ptr, ptr, ptr, ptr }
%struct.anon.14 = type { ptr, ptr, ptr, ptr, ptr, ptr, ptr, ptr, ptr, ptr, ptr, ptr, ptr, ptr, ptr, ptr, ptr, ptr, ptr, ptr }
%struct.anon.15 = type { ptr, ptr, ptr, ptr, ptr }
%struct.anon.16 = type { ptr, ptr, ptr, ptr }
%struct.anon.17 = type { ptr, ptr, ptr, i32, ptr, ptr, ptr, ptr, ptr, ptr, ptr, ptr, ptr, ptr, ptr, ptr, ptr, ptr, ptr, ptr, ptr, ptr, ptr, ptr, ptr, ptr, ptr, ptr, ptr }
%struct._GLFWlibraryX11 = type { ptr, i32, i64, float, float, i64, i64, i32, ptr, ptr, i32, ptr, ptr, [349 x [5 x i8]], [256 x i16], [349 x i16], double, double, ptr, [2 x i32], i64, i64, i64, i64, i64, i64, i64, i64, i64, i64, i64, i64, i64, i64, i64, i64, i64, i64, i64, i64, i64, i64, i64, i64, i64, i64, i64, i64, i64, i64, i64, i64, i64, i64, i64, i64, i64, i64, i64, i64, i64, i64, i64, i64, i64, i64, i64, i64, i64, i64, %struct.anon.18, %struct.anon.19, %struct.anon.20, %struct.anon.21, %struct.anon.22, %struct.anon.23, %struct.anon.24, %struct.anon.25, %struct.anon.26, %struct.anon.27, %struct.anon.28, %struct.anon.29, %struct.anon.30 }
%struct.anon.18 = type { ptr, i32, ptr, ptr, ptr, ptr, ptr, ptr, ptr, ptr, ptr, ptr, ptr, ptr, ptr, ptr, ptr, ptr, ptr, ptr, ptr, ptr, ptr, ptr, ptr, ptr, ptr, ptr, ptr, ptr, ptr, ptr, ptr, ptr, ptr, ptr, ptr, ptr, ptr, ptr, ptr, ptr, ptr, ptr, ptr, ptr, ptr, ptr, ptr, ptr, ptr, ptr, ptr, ptr, ptr, ptr, ptr, ptr, ptr, ptr, ptr, ptr, ptr, ptr, ptr, ptr, ptr, ptr, ptr, ptr, ptr, ptr, ptr, ptr, ptr, ptr, ptr, ptr, ptr, ptr, ptr, ptr, ptr, ptr, ptr, ptr, ptr, ptr }
%struct.anon.19 = type { ptr, ptr, ptr, ptr }
%struct.anon.20 = type { i32, ptr, i32, i32, i32, i32, i32, i32, ptr, ptr, ptr, ptr, ptr, ptr, ptr, ptr, ptr, ptr, ptr, ptr, ptr, ptr, ptr, ptr, ptr }
%struct.anon.21 = type { i32, i32, i32, i32, i32, i32, i32, i32, ptr, ptr, ptr, ptr, ptr, ptr, ptr, ptr, ptr }
%struct.anon.22 = type { i32, i32, i32, i32, i32 }
%struct.anon.23 = type { i32, i64, i64 }
%struct.anon.24 = type { ptr, ptr, ptr, ptr, ptr, ptr, ptr }
%struct.anon.25 = type { i32, ptr, i32, i32, ptr, ptr, ptr }
%struct.anon.26 = type { ptr, ptr }
%struct.anon.27 = type { i32, ptr, i32, i32, ptr, ptr, ptr, ptr }
%struct.anon.28 = type { i32, ptr, i32, i32, i32, i32, i32, ptr, ptr }
%struct.anon.29 = type { i32, ptr, i32, i32, i32, i32, ptr, ptr, ptr }
%struct.anon.30 = type { i32, ptr, i32, i32, i32, i32, ptr, ptr, ptr, ptr }
%struct._GLFWlibraryNull = type { i32, i32, ptr, ptr, [121 x i16], [349 x i8] }
%struct._GLFWlibraryGLX = type { i32, i32, i32, i32, ptr, ptr, ptr, ptr, ptr, ptr, ptr, ptr, ptr, ptr, ptr, ptr, ptr, ptr, ptr, ptr, ptr, ptr, ptr, ptr, i32, i32, i32, i32, i32, i32, i32, i32, i32, i32, i32, i32 }
%struct._GLFWlibraryLinux = type { i32, i32, %struct.re_pattern_buffer, i32, i32 }
%struct.re_pattern_buffer = type { ptr, i64, i64, i64, ptr, ptr, i64, i8 }
%struct._GLFWwindow = type { ptr, i32, i32, i32, i32, i32, i32, i32, ptr, i32, %struct.GLFWvidmode, ptr, ptr, ptr, i32, i32, i32, i32, i32, i32, i32, i32, i32, i32, [8 x i8], [349 x i8], double, double, i32, %struct._GLFWcontext, %struct.anon.33, %struct._GLFWwindowWayland, %struct._GLFWwindowX11, %struct._GLFWwindowNull }
%struct.GLFWvidmode = type { i32, i32, i32, i32, i32, i32 }
%struct._GLFWcontext = type { i32, i32, i32, i32, i32, i32, i32, i32, i32, i32, i32, ptr, ptr, ptr, ptr, ptr, ptr, ptr, ptr, ptr, %struct.anon.31, %struct.anon.32, %struct._GLFWcontextGLX }
%struct.anon.31 = type { ptr, ptr, ptr, ptr }
%struct.anon.32 = type { ptr, i32, i32, ptr }
%struct._GLFWcontextGLX = type { ptr, i64 }
%struct.anon.33 = type { ptr, ptr, ptr, ptr, ptr, ptr, ptr, ptr, ptr, ptr, ptr, ptr, ptr, ptr, ptr, ptr, ptr }
%struct._GLFWwindowWayland = type { i32, i32, i32, i32, i32, i32, i32, i32, i32, i32, i32, ptr, ptr, %struct.anon.34, %struct.anon.35, %struct.anon.36, %struct.anon.37, ptr, double, double, ptr, i32, ptr, i64, i64, ptr, i32, ptr, ptr, ptr, ptr, ptr, ptr, %struct.anon.38 }
%struct.anon.34 = type { ptr }
%struct.anon.35 = type { i32, i32, i32, i32, i32, i32 }
%struct.anon.36 = type { ptr, ptr, ptr, i32 }
%struct.anon.37 = type { ptr }
%struct.anon.38 = type { i32, ptr, %struct._GLFWfallbackEdgeWayland, %struct._GLFWfallbackEdgeWayland, %struct._GLFWfallbackEdgeWayland, %struct._GLFWfallbackEdgeWayland, ptr }
%struct._GLFWfallbackEdgeWayland = type { ptr, ptr, ptr }
%struct._GLFWwindowX11 = type { i64, i64, i64, ptr, i32, i32, i32, i32, i32, i32, i32, i32, i32, i32, i32, i32, [256 x i64] }
%struct._GLFWwindowNull = type { i32, i32, i32, i32, i32, i32, i32, i32, i32, i32, i32, float }
%struct._GLFWmonitor = type { [128 x i8], ptr, i32, i32, ptr, ptr, i32, %struct.GLFWvidmode, %struct.GLFWgammaramp, %struct.GLFWgammaramp, %struct._GLFWmonitorWayland, %struct._GLFWmonitorX11, %struct._GLFWmonitorNull }
%struct.GLFWgammaramp = type { ptr, ptr, ptr, i32 }
%struct._GLFWmonitorWayland = type { ptr, i32, i32, i32, i32, i32 }
%struct._GLFWmonitorX11 = type { i64, i64, i64, i32 }
%struct._GLFWmonitorNull = type { %struct.GLFWgammaramp }

@_glfw = external global %struct._GLFWlibrary, align 8

; Function Attrs: nounwind uwtable
define internal void @acquireMonitor(ptr noundef %0) #0 {
  %2 = alloca ptr, align 8
  %3 = alloca i32, align 4
  %4 = alloca i32, align 4
  %5 = alloca %struct.GLFWvidmode, align 4
  store ptr %0, ptr %2, align 8, !tbaa !133
  %6 = load i32, ptr getelementptr inbounds nuw (%struct._GLFWlibraryX11, ptr getelementptr inbounds nuw (%struct._GLFWlibrary, ptr @_glfw, i32 0, i32 22), i32 0, i32 74), align 8, !tbaa !284
  %7 = icmp eq i32 %6, 0
  br i1 %7, label %8, label %15

8:                                                ; preds = %1
  %9 = load ptr, ptr getelementptr inbounds nuw (%struct.anon.18, ptr getelementptr inbounds nuw (%struct._GLFWlibraryX11, ptr getelementptr inbounds nuw (%struct._GLFWlibrary, ptr @_glfw, i32 0, i32 22), i32 0, i32 70), i32 0, i32 38), align 8, !tbaa !285
  %10 = load ptr, ptr getelementptr inbounds nuw (%struct._GLFWlibrary, ptr @_glfw, i32 0, i32 22), align 8, !tbaa !96
  %11 = call i32 %9(ptr noundef %10, ptr noundef getelementptr inbounds nuw (%struct.anon.22, ptr getelementptr inbounds nuw (%struct._GLFWlibraryX11, ptr getelementptr inbounds nuw (%struct._GLFWlibrary, ptr @_glfw, i32 0, i32 22), i32 0, i32 74), i32 0, i32 1), ptr noundef getelementptr inbounds nuw (%struct.anon.22, ptr getelementptr inbounds nuw (%struct._GLFWlibraryX11, ptr getelementptr inbounds nuw (%struct._GLFWlibrary, ptr @_glfw, i32 0, i32 22), i32 0, i32 74), i32 0, i32 2), ptr noundef getelementptr inbounds nuw (%struct.anon.22, ptr getelementptr inbounds nuw (%struct._GLFWlibraryX11, ptr getelementptr inbounds nuw (%struct._GLFWlibrary, ptr @_glfw, i32 0, i32 22), i32 0, i32 74), i32 0, i32 3), ptr noundef getelementptr inbounds nuw (%struct.anon.22, ptr getelementptr inbounds nuw (%struct._GLFWlibraryX11, ptr getelementptr inbounds nuw (%struct._GLFWlibrary, ptr @_glfw, i32 0, i32 22), i32 0, i32 74), i32 0, i32 4))
  %12 = load ptr, ptr getelementptr inbounds nuw (%struct.anon.18, ptr getelementptr inbounds nuw (%struct._GLFWlibraryX11, ptr getelementptr inbounds nuw (%struct._GLFWlibrary, ptr @_glfw, i32 0, i32 22), i32 0, i32 70), i32 0, i32 71), align 8, !tbaa !286
  %13 = load ptr, ptr getelementptr inbounds nuw (%struct._GLFWlibrary, ptr @_glfw, i32 0, i32 22), align 8, !tbaa !96
  %14 = call i32 %12(ptr noundef %13, i32 noundef 0, i32 noundef 0, i32 noundef 0, i32 noundef 2)
  br label %15

15:                                               ; preds = %8, %1
  %16 = load ptr, ptr %2, align 8, !tbaa !133
  %17 = getelementptr inbounds nuw %struct._GLFWwindow, ptr %16, i32 0, i32 11
  %18 = load ptr, ptr %17, align 8, !tbaa !196
  %19 = getelementptr inbounds nuw %struct._GLFWmonitor, ptr %18, i32 0, i32 4
  %20 = load ptr, ptr %19, align 8, !tbaa !287
  %21 = icmp ne ptr %20, null
  br i1 %21, label %25, label %22

22:                                               ; preds = %15
  %23 = load i32, ptr getelementptr inbounds nuw (%struct._GLFWlibraryX11, ptr getelementptr inbounds nuw (%struct._GLFWlibrary, ptr @_glfw, i32 0, i32 22), i32 0, i32 74), align 8, !tbaa !284
  %24 = add nsw i32 %23, 1
  store i32 %24, ptr getelementptr inbounds nuw (%struct._GLFWlibraryX11, ptr getelementptr inbounds nuw (%struct._GLFWlibrary, ptr @_glfw, i32 0, i32 22), i32 0, i32 74), align 8, !tbaa !284
  br label %25

25:                                               ; preds = %22, %15
  %26 = load ptr, ptr %2, align 8, !tbaa !133
  %27 = getelementptr inbounds nuw %struct._GLFWwindow, ptr %26, i32 0, i32 11
  %28 = load ptr, ptr %27, align 8, !tbaa !196
  %29 = load ptr, ptr %2, align 8, !tbaa !133
  %30 = getelementptr inbounds nuw %struct._GLFWwindow, ptr %29, i32 0, i32 10
  call void @_glfwSetVideoModeX11(ptr noundef %28, ptr noundef %30)
  %31 = load ptr, ptr %2, align 8, !tbaa !133
  %32 = getelementptr inbounds nuw %struct._GLFWwindow, ptr %31, i32 0, i32 32
  %33 = getelementptr inbounds nuw %struct._GLFWwindowX11, ptr %32, i32 0, i32 4
  %34 = load i32, ptr %33, align 8, !tbaa !281
  %35 = icmp ne i32 %34, 0
  br i1 %35, label %36, label %57

36:                                               ; preds = %25
  call void @llvm.lifetime.start.p0(i64 4, ptr %3) #8
  call void @llvm.lifetime.start.p0(i64 4, ptr %4) #8
  call void @llvm.lifetime.start.p0(i64 24, ptr %5) #8
  %37 = load ptr, ptr %2, align 8, !tbaa !133
  %38 = getelementptr inbounds nuw %struct._GLFWwindow, ptr %37, i32 0, i32 11
  %39 = load ptr, ptr %38, align 8, !tbaa !196
  call void @_glfwGetMonitorPosX11(ptr noundef %39, ptr noundef %3, ptr noundef %4)
  %40 = load ptr, ptr %2, align 8, !tbaa !133
  %41 = getelementptr inbounds nuw %struct._GLFWwindow, ptr %40, i32 0, i32 11
  %42 = load ptr, ptr %41, align 8, !tbaa !196
  %43 = call i32 @_glfwGetVideoModeX11(ptr noundef %42, ptr noundef %5)
  %44 = load ptr, ptr getelementptr inbounds nuw (%struct.anon.18, ptr getelementptr inbounds nuw (%struct._GLFWlibraryX11, ptr getelementptr inbounds nuw (%struct._GLFWlibrary, ptr @_glfw, i32 0, i32 22), i32 0, i32 70), i32 0, i32 50), align 8, !tbaa !288
  %45 = load ptr, ptr getelementptr inbounds nuw (%struct._GLFWlibrary, ptr @_glfw, i32 0, i32 22), align 8, !tbaa !96
  %46 = load ptr, ptr %2, align 8, !tbaa !133
  %47 = getelementptr inbounds nuw %struct._GLFWwindow, ptr %46, i32 0, i32 32
  %48 = getelementptr inbounds nuw %struct._GLFWwindowX11, ptr %47, i32 0, i32 1
  %49 = load i64, ptr %48, align 8, !tbaa !139
  %50 = load i32, ptr %3, align 4, !tbaa !194
  %51 = load i32, ptr %4, align 4, !tbaa !194
  %52 = getelementptr inbounds nuw %struct.GLFWvidmode, ptr %5, i32 0, i32 0
  %53 = load i32, ptr %52, align 4, !tbaa !289
  %54 = getelementptr inbounds nuw %struct.GLFWvidmode, ptr %5, i32 0, i32 1
  %55 = load i32, ptr %54, align 4, !tbaa !290
  %56 = call i32 %44(ptr noundef %45, i64 noundef %49, i32 noundef %50, i32 noundef %51, i32 noundef %53, i32 noundef %55)
  call void @llvm.lifetime.end.p0(i64 24, ptr %5) #8
  call void @llvm.lifetime.end.p0(i64 4, ptr %4) #8
  call void @llvm.lifetime.end.p0(i64 4, ptr %3) #8
  br label %57

57:                                               ; preds = %36, %25
  %58 = load ptr, ptr %2, align 8, !tbaa !133
  %59 = getelementptr inbounds nuw %struct._GLFWwindow, ptr %58, i32 0, i32 11
  %60 = load ptr, ptr %59, align 8, !tbaa !196
  %61 = load ptr, ptr %2, align 8, !tbaa !133
  call void @_glfwInputMonitorWindow(ptr noundef %60, ptr noundef %61)
  ret void
}