; Function Attrs: nounwind uwtable
define internal fastcc void @acquireMonitor(ptr noundef %0) unnamed_addr #0 {
  %2 = alloca i32, align 4
  %3 = alloca i32, align 4
  %4 = alloca %struct.GLFWvidmode, align 4
  %5 = load i32, ptr getelementptr inbounds nuw (i8, ptr @_glfw, i64 142344), align 8, !tbaa !282
  %6 = icmp eq i32 %5, 0
  br i1 %6, label %7, label %14

7:                                                ; preds = %1
  %8 = load ptr, ptr getelementptr inbounds nuw (i8, ptr @_glfw, i64 141632), align 8, !tbaa !283
  %9 = load ptr, ptr getelementptr inbounds nuw (i8, ptr @_glfw, i64 137840), align 8, !tbaa !93
  %10 = tail call i32 %8(ptr noundef %9, ptr noundef nonnull getelementptr inbounds nuw (i8, ptr @_glfw, i64 142348), ptr noundef nonnull getelementptr inbounds nuw (i8, ptr @_glfw, i64 142352), ptr noundef nonnull getelementptr inbounds nuw (i8, ptr @_glfw, i64 142356), ptr noundef nonnull getelementptr inbounds nuw (i8, ptr @_glfw, i64 142360)) #17
  %11 = load ptr, ptr getelementptr inbounds nuw (i8, ptr @_glfw, i64 141896), align 8, !tbaa !284
  %12 = load ptr, ptr getelementptr inbounds nuw (i8, ptr @_glfw, i64 137840), align 8, !tbaa !93
  %13 = tail call i32 %11(ptr noundef %12, i32 noundef 0, i32 noundef 0, i32 noundef 0, i32 noundef 2) #17
  br label %14

14:                                               ; preds = %7, %1
  %15 = getelementptr inbounds nuw i8, ptr %0, i64 80
  %16 = load ptr, ptr %15, align 8, !tbaa !213
  %17 = getelementptr inbounds nuw i8, ptr %16, i64 144
  %18 = load ptr, ptr %17, align 8, !tbaa !285
  %.not = icmp eq ptr %18, null
  br i1 %.not, label %19, label %22

19:                                               ; preds = %14
  %20 = load i32, ptr getelementptr inbounds nuw (i8, ptr @_glfw, i64 142344), align 8, !tbaa !282
  %21 = add nsw i32 %20, 1
  store i32 %21, ptr getelementptr inbounds nuw (i8, ptr @_glfw, i64 142344), align 8, !tbaa !282
  br label %22

22:                                               ; preds = %19, %14
  %23 = getelementptr inbounds nuw i8, ptr %0, i64 52
  tail call void @_glfwSetVideoModeX11(ptr noundef nonnull %16, ptr noundef nonnull %23) #17
  %24 = getelementptr inbounds nuw i8, ptr %0, i64 1272
  %25 = load i32, ptr %24, align 8, !tbaa !279
  %.not9 = icmp eq i32 %25, 0
  br i1 %.not9, label %40, label %26

26:                                               ; preds = %22
  call void @llvm.lifetime.start.p0(i64 4, ptr nonnull %2) #17
  call void @llvm.lifetime.start.p0(i64 4, ptr nonnull %3) #17
  call void @llvm.lifetime.start.p0(i64 24, ptr nonnull %4) #17
  %27 = load ptr, ptr %15, align 8, !tbaa !213
  call void @_glfwGetMonitorPosX11(ptr noundef %27, ptr noundef nonnull %2, ptr noundef nonnull %3) #17
  %28 = load ptr, ptr %15, align 8, !tbaa !213
  %29 = call i32 @_glfwGetVideoModeX11(ptr noundef %28, ptr noundef nonnull %4) #17
  %30 = load ptr, ptr getelementptr inbounds nuw (i8, ptr @_glfw, i64 141728), align 8, !tbaa !286
  %31 = load ptr, ptr getelementptr inbounds nuw (i8, ptr @_glfw, i64 137840), align 8, !tbaa !93
  %32 = getelementptr inbounds nuw i8, ptr %0, i64 1248
  %33 = load i64, ptr %32, align 8, !tbaa !140
  %34 = load i32, ptr %2, align 4, !tbaa !183
  %35 = load i32, ptr %3, align 4, !tbaa !183
  %36 = load i32, ptr %4, align 4, !tbaa !287
  %37 = getelementptr inbounds nuw i8, ptr %4, i64 4
  %38 = load i32, ptr %37, align 4, !tbaa !288
  %39 = call i32 %30(ptr noundef %31, i64 noundef %33, i32 noundef %34, i32 noundef %35, i32 noundef %36, i32 noundef %38) #17
  call void @llvm.lifetime.end.p0(i64 24, ptr nonnull %4) #17
  call void @llvm.lifetime.end.p0(i64 4, ptr nonnull %3) #17
  call void @llvm.lifetime.end.p0(i64 4, ptr nonnull %2) #17
  br label %40

40:                                               ; preds = %26, %22
  %41 = load ptr, ptr %15, align 8, !tbaa !213
  call void @_glfwInputMonitorWindow(ptr noundef %41, ptr noundef nonnull %0) #17
  ret void
}